; Function Attrs: nounwind uwtable
define dso_local void @scratch_buffer_append(ptr nocapture noundef readonly %0) local_unnamed_addr #7 {
  %2 = tail call i64 @strlen(ptr noundef nonnull dereferenceable(1) %0) #20
  %3 = load i32, ptr getelementptr inbounds (%struct.ScratchBuf, ptr @scratch_buffer, i64 0, i32 1), align 4
  %4 = zext i32 %3 to i64
  %5 = add i64 %2, %4
  %6 = icmp ugt i64 %5, 65535
  br i1 %6, label %7, label %scratch_buffer_append_len.exit

7:                                                ; preds = %1
  tail call void (ptr, ...) @error_exit(ptr noundef nonnull @.str.1, i32 noundef 65535) #22
  unreachable

scratch_buffer_append_len.exit:                   ; preds = %1
  %8 = getelementptr inbounds i8, ptr @scratch_buffer, i64 %4
  tail call void @llvm.memcpy.p0.p0.i64(ptr nonnull align 1 %8, ptr align 1 %0, i64 %2, i1 false)
  %9 = trunc i64 %2 to i32
  %10 = load i32, ptr getelementptr inbounds (%struct.ScratchBuf, ptr @scratch_buffer, i64 0, i32 1), align 4
  %11 = add i32 %10, %9
  store i32 %11, ptr getelementptr inbounds (%struct.ScratchBuf, ptr @scratch_buffer, i64 0, i32 1), align 4
  ret void
}